target datalayout = "e-m:e-p270:32:32-p271:32:32-p272:64:64-i64:64-i128:128-f80:128-n8:16:32:64-S128"
target triple = "x86_64-pc-linux-gnu"

%"class.icu_77::StringPiece" = type <{ ptr, i32, [4 x i8] }>
%"class.icu_77::units::UnitsRouter" = type { %"class.icu_77::MaybeStackVector", %"class.icu_77::MaybeStackVector.2" }
%"class.icu_77::MaybeStackVector" = type { %"class.icu_77::MemoryPool" }
%"class.icu_77::MemoryPool" = type { i32, %"class.icu_77::MaybeStackArray.1" }
%"class.icu_77::MaybeStackArray.1" = type { ptr, i32, i8, [8 x ptr] }
%"class.icu_77::MaybeStackVector.2" = type { %"class.icu_77::MemoryPool.3" }
%"class.icu_77::MemoryPool.3" = type { i32, %"class.icu_77::MaybeStackArray.4" }
%"class.icu_77::MaybeStackArray.4" = type { ptr, i32, i8, [8 x ptr] }

; Function Attrs: mustprogress nounwind uwtable
define linkonce_odr void @_ZN6icu_7715MaybeStackArrayIPNS_5units19ConverterPreferenceELi8EEC2Ev(ptr noundef nonnull align 8 dereferenceable(80) %0) unnamed_addr #0 comdat align 2 {
  %2 = alloca ptr, align 8
  store ptr %0, ptr %2, align 8, !tbaa !137
  %3 = load ptr, ptr %2, align 8
  %4 = getelementptr inbounds nuw %"class.icu_77::MaybeStackArray.4", ptr %3, i32 0, i32 0
  %5 = getelementptr inbounds nuw %"class.icu_77::MaybeStackArray.4", ptr %3, i32 0, i32 3
  %6 = getelementptr inbounds [8 x ptr], ptr %5, i64 0, i64 0
  store ptr %6, ptr %4, align 8, !tbaa !139
  %7 = getelementptr inbounds nuw %"class.icu_77::MaybeStackArray.4", ptr %3, i32 0, i32 1
  store i32 8, ptr %7, align 8, !tbaa !140
  %8 = getelementptr inbounds nuw %"class.icu_77::MaybeStackArray.4", ptr %3, i32 0, i32 2
  store i8 0, ptr %8, align 4, !tbaa !141
  ret void
}

; Function Attrs: mustprogress nounwind uwtable
define linkonce_odr void @_ZN6icu_7715MaybeStackArrayIPNS_11MeasureUnitELi8EEC2Ev(ptr noundef nonnull align 8 dereferenceable(80) %0) unnamed_addr #0 comdat align 2 {
  %2 = alloca ptr, align 8
  store ptr %0, ptr %2, align 8, !tbaa !132
  %3 = load ptr, ptr %2, align 8
  %4 = getelementptr inbounds nuw %"class.icu_77::MaybeStackArray.1", ptr %3, i32 0, i32 0
  %5 = getelementptr inbounds nuw %"class.icu_77::MaybeStackArray.1", ptr %3, i32 0, i32 3
  %6 = getelementptr inbounds [8 x ptr], ptr %5, i64 0, i64 0
  store ptr %6, ptr %4, align 8, !tbaa !134
  %7 = getelementptr inbounds nuw %"class.icu_77::MaybeStackArray.1", ptr %3, i32 0, i32 1
  store i32 8, ptr %7, align 8, !tbaa !135
  %8 = getelementptr inbounds nuw %"class.icu_77::MaybeStackArray.1", ptr %3, i32 0, i32 2
  store i8 0, ptr %8, align 4, !tbaa !136
  ret void
}

; Function Attrs: mustprogress uwtable
define linkonce_odr void @_ZN6icu_7710MemoryPoolINS_5units19ConverterPreferenceELi8EEC2Ev(ptr noundef nonnull align 8 dereferenceable(88) %0) unnamed_addr #1 comdat align 2 {
  %2 = alloca ptr, align 8
  store ptr %0, ptr %2, align 8, !tbaa !53
  %3 = load ptr, ptr %2, align 8
  %4 = getelementptr inbounds nuw %"class.icu_77::MemoryPool.3", ptr %3, i32 0, i32 0
  store i32 0, ptr %4, align 8, !tbaa !55
  %5 = getelementptr inbounds nuw %"class.icu_77::MemoryPool.3", ptr %3, i32 0, i32 1
  call void @_ZN6icu_7715MaybeStackArrayIPNS_5units19ConverterPreferenceELi8EEC2Ev(ptr noundef nonnull align 8 dereferenceable(80) %5)
  ret void
}

; Function Attrs: mustprogress uwtable
define linkonce_odr void @_ZN6icu_7710MemoryPoolINS_11MeasureUnitELi8EEC2Ev(ptr noundef nonnull align 8 dereferenceable(88) %0) unnamed_addr #1 comdat align 2 {
  %2 = alloca ptr, align 8
  store ptr %0, ptr %2, align 8, !tbaa !63
  %3 = load ptr, ptr %2, align 8
  %4 = getelementptr inbounds nuw %"class.icu_77::MemoryPool", ptr %3, i32 0, i32 0
  store i32 0, ptr %4, align 8, !tbaa !65
  %5 = getelementptr inbounds nuw %"class.icu_77::MemoryPool", ptr %3, i32 0, i32 1
  call void @_ZN6icu_7715MaybeStackArrayIPNS_11MeasureUnitELi8EEC2Ev(ptr noundef nonnull align 8 dereferenceable(80) %5)
  ret void
}

; Function Attrs: inlinehint mustprogress uwtable
define linkonce_odr void @_ZN6icu_7716MaybeStackVectorINS_5units19ConverterPreferenceELi8EEC2Ev(ptr noundef nonnull align 8 dereferenceable(88) %0) unnamed_addr #3 comdat align 2 {
  %2 = alloca ptr, align 8
  store ptr %0, ptr %2, align 8, !tbaa !45
  %3 = load ptr, ptr %2, align 8
  call void @_ZN6icu_7710MemoryPoolINS_5units19ConverterPreferenceELi8EEC2Ev(ptr noundef nonnull align 8 dereferenceable(88) %3)
  ret void
}

; Function Attrs: inlinehint mustprogress uwtable
define linkonce_odr void @_ZN6icu_7716MaybeStackVectorINS_11MeasureUnitELi8EEC2Ev(ptr noundef nonnull align 8 dereferenceable(88) %0) unnamed_addr #3 comdat align 2 {
  %2 = alloca ptr, align 8
  store ptr %0, ptr %2, align 8, !tbaa !43
  %3 = load ptr, ptr %2, align 8
  call void @_ZN6icu_7710MemoryPoolINS_11MeasureUnitELi8EEC2Ev(ptr noundef nonnull align 8 dereferenceable(88) %3)
  ret void
}

; Function Attrs: mustprogress uwtable
define void @_ZN6icu_775units11UnitsRouterC2ERKNS_11MeasureUnitERKNS_6LocaleENS_11StringPieceER10UErrorCode(ptr noundef nonnull align 8 dereferenceable(176) %0, ptr noundef nonnull align 8 dereferenceable(19) %1, ptr noundef nonnull align 8 dereferenceable(217) %2, ptr %3, i32 %4, ptr noundef nonnull align 4 dereferenceable(4) %5) unnamed_addr #1 align 2 personality ptr @__gxx_personality_v0 {
  %7 = alloca %"class.icu_77::StringPiece", align 8
  %8 = alloca ptr, align 8
  %9 = alloca ptr, align 8
  %10 = alloca ptr, align 8
  %11 = alloca ptr, align 8
  %12 = alloca ptr, align 8
  %13 = alloca i32, align 4
  %14 = alloca %"class.icu_77::StringPiece", align 8
  %15 = getelementptr inbounds nuw { ptr, i32 }, ptr %7, i32 0, i32 0
  store ptr %3, ptr %15, align 8
  %16 = getelementptr inbounds nuw { ptr, i32 }, ptr %7, i32 0, i32 1
  store i32 %4, ptr %16, align 8
  store ptr %0, ptr %8, align 8, !tbaa !39
  store ptr %1, ptr %9, align 8, !tbaa !47
  store ptr %2, ptr %10, align 8, !tbaa !41
  store ptr %5, ptr %11, align 8, !tbaa !22
  %17 = load ptr, ptr %8, align 8
  %18 = getelementptr inbounds nuw %"class.icu_77::units::UnitsRouter", ptr %17, i32 0, i32 0
  call void @_ZN6icu_7716MaybeStackVectorINS_11MeasureUnitELi8EEC2Ev(ptr noundef nonnull align 8 dereferenceable(88) %18)
  %19 = getelementptr inbounds nuw %"class.icu_77::units::UnitsRouter", ptr %17, i32 0, i32 1
  invoke void @_ZN6icu_7716MaybeStackVectorINS_5units19ConverterPreferenceELi8EEC2Ev(ptr noundef nonnull align 8 dereferenceable(88) %19)
          to label %20 unwind label %29

20:                                               ; preds = %6
  %21 = load ptr, ptr %9, align 8, !tbaa !47
  %22 = load ptr, ptr %10, align 8, !tbaa !41
  call void @llvm.memcpy.p0.p0.i64(ptr align 8 %14, ptr align 8 %7, i64 16, i1 false)
  %23 = load ptr, ptr %11, align 8, !tbaa !22
  %24 = getelementptr inbounds nuw { ptr, i32 }, ptr %14, i32 0, i32 0
  %25 = load ptr, ptr %24, align 8
  %26 = getelementptr inbounds nuw { ptr, i32 }, ptr %14, i32 0, i32 1
  %27 = load i32, ptr %26, align 8
  invoke void @_ZN6icu_775units11UnitsRouter4initERKNS_11MeasureUnitERKNS_6LocaleENS_11StringPieceER10UErrorCode(ptr noundef nonnull align 8 dereferenceable(176) %17, ptr noundef nonnull align 8 dereferenceable(19) %21, ptr noundef nonnull align 8 dereferenceable(217) %22, ptr %25, i32 %27, ptr noundef nonnull align 4 dereferenceable(4) %23)
          to label %28 unwind label %33

28:                                               ; preds = %20
  ret void

29:                                               ; preds = %6
  %30 = landingpad { ptr, i32 }
          cleanup
  %31 = extractvalue { ptr, i32 } %30, 0
  store ptr %31, ptr %12, align 8
  %32 = extractvalue { ptr, i32 } %30, 1
  store i32 %32, ptr %13, align 4
  br label %37

33:                                               ; preds = %20
  %34 = landingpad { ptr, i32 }
          cleanup
  %35 = extractvalue { ptr, i32 } %34, 0
  store ptr %35, ptr %12, align 8
  %36 = extractvalue { ptr, i32 } %34, 1
  store i32 %36, ptr %13, align 4
  call void @_ZN6icu_7710MemoryPoolINS_5units19ConverterPreferenceELi8EED2Ev(ptr noundef nonnull align 8 dereferenceable(88) %19) #11
  br label %37

37:                                               ; preds = %33, %29
  call void @_ZN6icu_7710MemoryPoolINS_11MeasureUnitELi8EED2Ev(ptr noundef nonnull align 8 dereferenceable(88) %18) #11
  br label %38

38:                                               ; preds = %37
  %39 = load ptr, ptr %12, align 8
  %40 = load i32, ptr %13, align 4
  %41 = insertvalue { ptr, i32 } poison, ptr %39, 0
  %42 = insertvalue { ptr, i32 } %41, i32 %40, 1
  resume { ptr, i32 } %42
}