; Function Attrs: mustprogress uwtable
define void @_ZN6icu_775units11UnitsRouterC2ERKNS_11MeasureUnitERKNS_6LocaleENS_11StringPieceER10UErrorCode(ptr noundef nonnull align 8 dereferenceable(176) initializes((0, 4)) %0, ptr noundef nonnull align 8 dereferenceable(19) %1, ptr noundef nonnull align 8 dereferenceable(217) %2, ptr %3, i32 %4, ptr noundef nonnull align 4 dereferenceable(4) %5) unnamed_addr #1 align 2 personality ptr @__gxx_personality_v0 {
  store i32 0, ptr %0, align 8, !tbaa !25
  %7 = getelementptr inbounds nuw i8, ptr %0, i64 8
  %8 = getelementptr inbounds nuw i8, ptr %0, i64 24
  store ptr %8, ptr %7, align 8, !tbaa !30
  %9 = getelementptr inbounds nuw i8, ptr %0, i64 16
  store i32 8, ptr %9, align 8, !tbaa !31
  %10 = getelementptr inbounds nuw i8, ptr %0, i64 20
  store i8 0, ptr %10, align 4, !tbaa !32
  %11 = getelementptr inbounds nuw i8, ptr %0, i64 88
  store i32 0, ptr %11, align 8, !tbaa !33
  %12 = getelementptr inbounds nuw i8, ptr %0, i64 96
  %13 = getelementptr inbounds nuw i8, ptr %0, i64 112
  store ptr %13, ptr %12, align 8, !tbaa !37
  %14 = getelementptr inbounds nuw i8, ptr %0, i64 104
  store i32 8, ptr %14, align 8, !tbaa !38
  %15 = getelementptr inbounds nuw i8, ptr %0, i64 108
  store i8 0, ptr %15, align 4, !tbaa !39
  invoke void @_ZN6icu_775units11UnitsRouter4initERKNS_11MeasureUnitERKNS_6LocaleENS_11StringPieceER10UErrorCode(ptr noundef nonnull align 8 dereferenceable(176) %0, ptr noundef nonnull align 8 dereferenceable(19) %1, ptr noundef nonnull align 8 dereferenceable(217) %2, ptr %3, i32 %4, ptr noundef nonnull align 4 dereferenceable(4) %5)
          to label %16 unwind label %17

16:                                               ; preds = %6
  ret void

17:                                               ; preds = %6
  %18 = landingpad { ptr, i32 }
          cleanup
  tail call void @_ZN6icu_7710MemoryPoolINS_5units19ConverterPreferenceELi8EED2Ev(ptr noundef nonnull align 8 dereferenceable(88) %11) #14
  tail call void @_ZN6icu_7710MemoryPoolINS_11MeasureUnitELi8EED2Ev(ptr noundef nonnull align 8 dereferenceable(88) %0) #14
  resume { ptr, i32 } %18
}